target datalayout = "e-m:e-p270:32:32-p271:32:32-p272:64:64-i64:64-i128:128-f80:128-n8:16:32:64-S128"
target triple = "x86_64-pc-linux-gnu"

%class.vector.13 = type { ptr }
%class.svector = type { %class.vector.0 }
%class.vector.0 = type { ptr }
%class.indexed_uint_set = type { i32, %class.svector, %class.svector }

; Function Attrs: mustprogress nounwind uwtable
define linkonce_odr hidden noundef nonnull align 4 dereferenceable(4) ptr @_ZN6vectorIjLb0EjEixEj(ptr noundef nonnull align 8 dereferenceable(8) %0, i32 noundef %1) #4 comdat align 2 {
  %3 = alloca ptr, align 8
  %4 = alloca i32, align 4
  store ptr %0, ptr %3, align 8, !tbaa !373
  store i32 %1, ptr %4, align 4, !tbaa !8
  %5 = load ptr, ptr %3, align 8
  %6 = getelementptr inbounds nuw %class.vector.0, ptr %5, i32 0, i32 0
  %7 = load ptr, ptr %6, align 8, !tbaa !375
  %8 = load i32, ptr %4, align 4, !tbaa !8
  %9 = zext i32 %8 to i64
  %10 = getelementptr inbounds nuw i32, ptr %7, i64 %9
  ret ptr %10
}

; Function Attrs: mustprogress nounwind uwtable
define linkonce_odr hidden noundef i32 @_ZNK6vectorIiLb1EjE4sizeEv(ptr noundef nonnull align 8 dereferenceable(8) %0) #4 comdat align 2 {
  %2 = alloca i32, align 4
  %3 = alloca ptr, align 8
  store ptr %0, ptr %3, align 8, !tbaa !376
  %4 = load ptr, ptr %3, align 8
  %5 = getelementptr inbounds nuw %class.vector.13, ptr %4, i32 0, i32 0
  %6 = load ptr, ptr %5, align 8, !tbaa !378
  %7 = icmp eq ptr %6, null
  br i1 %7, label %8, label %9

8:                                                ; preds = %1
  store i32 0, ptr %2, align 4
  br label %14

9:                                                ; preds = %1
  %10 = getelementptr inbounds nuw %class.vector.13, ptr %4, i32 0, i32 0
  %11 = load ptr, ptr %10, align 8, !tbaa !378
  %12 = getelementptr inbounds i32, ptr %11, i64 -1
  %13 = load i32, ptr %12, align 4, !tbaa !8
  store i32 %13, ptr %2, align 4
  br label %14

14:                                               ; preds = %9, %8
  %15 = load i32, ptr %2, align 4
  ret i32 %15
}

; Function Attrs: mustprogress nounwind uwtable
define linkonce_odr hidden noundef ptr @_ZNK6vectorIjLb0EjE5beginEv(ptr noundef nonnull align 8 dereferenceable(8) %0) #4 comdat align 2 {
  %2 = alloca ptr, align 8
  store ptr %0, ptr %2, align 8, !tbaa !373
  %3 = load ptr, ptr %2, align 8
  %4 = getelementptr inbounds nuw %class.vector.0, ptr %3, i32 0, i32 0
  %5 = load ptr, ptr %4, align 8, !tbaa !375
  ret ptr %5
}

; Function Attrs: mustprogress uwtable
define linkonce_odr hidden void @_ZN16indexed_uint_set6removeEj(ptr noundef nonnull align 8 dereferenceable(24) %0, i32 noundef %1) #6 comdat align 2 {
  %3 = alloca ptr, align 8
  %4 = alloca i32, align 4
  %5 = alloca i32, align 4
  %6 = alloca i32, align 4
  store ptr %0, ptr %3, align 8, !tbaa !243
  store i32 %1, ptr %4, align 4, !tbaa !8
  %7 = load ptr, ptr %3, align 8
  call void @llvm.lifetime.start.p0(i64 4, ptr %5) #3
  %8 = getelementptr inbounds nuw %class.indexed_uint_set, ptr %7, i32 0, i32 1
  %9 = getelementptr inbounds nuw %class.indexed_uint_set, ptr %7, i32 0, i32 0
  %10 = load i32, ptr %9, align 8, !tbaa !244
  %11 = add i32 %10, -1
  store i32 %11, ptr %9, align 8, !tbaa !244
  %12 = call noundef nonnull align 4 dereferenceable(4) ptr @_ZN6vectorIjLb0EjEixEj(ptr noundef nonnull align 8 dereferenceable(8) %8, i32 noundef %11)
  %13 = load i32, ptr %12, align 4, !tbaa !8
  store i32 %13, ptr %5, align 4, !tbaa !8
  %14 = load i32, ptr %4, align 4, !tbaa !8
  %15 = load i32, ptr %5, align 4, !tbaa !8
  %16 = icmp ne i32 %14, %15
  br i1 %16, label %17, label %40

17:                                               ; preds = %2
  call void @llvm.lifetime.start.p0(i64 4, ptr %6) #3
  %18 = getelementptr inbounds nuw %class.indexed_uint_set, ptr %7, i32 0, i32 2
  %19 = load i32, ptr %4, align 4, !tbaa !8
  %20 = call noundef nonnull align 4 dereferenceable(4) ptr @_ZN6vectorIjLb0EjEixEj(ptr noundef nonnull align 8 dereferenceable(8) %18, i32 noundef %19)
  %21 = load i32, ptr %20, align 4, !tbaa !8
  store i32 %21, ptr %6, align 4, !tbaa !8
  %22 = load i32, ptr %6, align 4, !tbaa !8
  %23 = getelementptr inbounds nuw %class.indexed_uint_set, ptr %7, i32 0, i32 2
  %24 = load i32, ptr %5, align 4, !tbaa !8
  %25 = call noundef nonnull align 4 dereferenceable(4) ptr @_ZN6vectorIjLb0EjEixEj(ptr noundef nonnull align 8 dereferenceable(8) %23, i32 noundef %24)
  store i32 %22, ptr %25, align 4, !tbaa !8
  %26 = load i32, ptr %5, align 4, !tbaa !8
  %27 = getelementptr inbounds nuw %class.indexed_uint_set, ptr %7, i32 0, i32 1
  %28 = load i32, ptr %6, align 4, !tbaa !8
  %29 = call noundef nonnull align 4 dereferenceable(4) ptr @_ZN6vectorIjLb0EjEixEj(ptr noundef nonnull align 8 dereferenceable(8) %27, i32 noundef %28)
  store i32 %26, ptr %29, align 4, !tbaa !8
  %30 = getelementptr inbounds nuw %class.indexed_uint_set, ptr %7, i32 0, i32 0
  %31 = load i32, ptr %30, align 8, !tbaa !244
  %32 = getelementptr inbounds nuw %class.indexed_uint_set, ptr %7, i32 0, i32 2
  %33 = load i32, ptr %4, align 4, !tbaa !8
  %34 = call noundef nonnull align 4 dereferenceable(4) ptr @_ZN6vectorIjLb0EjEixEj(ptr noundef nonnull align 8 dereferenceable(8) %32, i32 noundef %33)
  store i32 %31, ptr %34, align 4, !tbaa !8
  %35 = load i32, ptr %4, align 4, !tbaa !8
  %36 = getelementptr inbounds nuw %class.indexed_uint_set, ptr %7, i32 0, i32 1
  %37 = getelementptr inbounds nuw %class.indexed_uint_set, ptr %7, i32 0, i32 0
  %38 = load i32, ptr %37, align 8, !tbaa !244
  %39 = call noundef nonnull align 4 dereferenceable(4) ptr @_ZN6vectorIjLb0EjEixEj(ptr noundef nonnull align 8 dereferenceable(8) %36, i32 noundef %38)
  store i32 %35, ptr %39, align 4, !tbaa !8
  call void @llvm.lifetime.end.p0(i64 4, ptr %6) #3
  br label %40

40:                                               ; preds = %17, %2
  call void @llvm.lifetime.end.p0(i64 4, ptr %5) #3
  ret void
}

; Function Attrs: mustprogress nounwind uwtable
define linkonce_odr hidden noundef ptr @_ZN6vectorIiLb1EjE3endEv(ptr noundef nonnull align 8 dereferenceable(8) %0) #4 comdat align 2 {
  %2 = alloca ptr, align 8
  store ptr %0, ptr %2, align 8, !tbaa !376
  %3 = load ptr, ptr %2, align 8
  %4 = getelementptr inbounds nuw %class.vector.13, ptr %3, i32 0, i32 0
  %5 = load ptr, ptr %4, align 8, !tbaa !378
  %6 = call noundef i32 @_ZNK6vectorIiLb1EjE4sizeEv(ptr noundef nonnull align 8 dereferenceable(8) %3)
  %7 = zext i32 %6 to i64
  %8 = getelementptr inbounds nuw i32, ptr %5, i64 %7
  ret ptr %8
}

; Function Attrs: mustprogress nounwind uwtable
define linkonce_odr hidden noundef ptr @_ZN6vectorIiLb1EjE5beginEv(ptr noundef nonnull align 8 dereferenceable(8) %0) #4 comdat align 2 {
  %2 = alloca ptr, align 8
  store ptr %0, ptr %2, align 8, !tbaa !376
  %3 = load ptr, ptr %2, align 8
  %4 = getelementptr inbounds nuw %class.vector.13, ptr %3, i32 0, i32 0
  %5 = load ptr, ptr %4, align 8, !tbaa !378
  ret ptr %5
}

; Function Attrs: mustprogress uwtable
define linkonce_odr hidden noundef nonnull align 8 dereferenceable(8) ptr @_ZN6vectorIiLb1EjE9push_backEOi(ptr noundef nonnull align 8 dereferenceable(8) %0, ptr noundef nonnull align 4 dereferenceable(4) %1) #6 comdat align 2 {
  %3 = alloca ptr, align 8
  %4 = alloca ptr, align 8
  store ptr %0, ptr %3, align 8, !tbaa !376
  store ptr %1, ptr %4, align 8, !tbaa !327
  %5 = load ptr, ptr %3, align 8
  %6 = getelementptr inbounds nuw %class.vector.13, ptr %5, i32 0, i32 0
  %7 = load ptr, ptr %6, align 8, !tbaa !378
  %8 = icmp eq ptr %7, null
  br i1 %8, label %19, label %9

9:                                                ; preds = %2
  %10 = getelementptr inbounds nuw %class.vector.13, ptr %5, i32 0, i32 0
  %11 = load ptr, ptr %10, align 8, !tbaa !378
  %12 = getelementptr inbounds i32, ptr %11, i64 -1
  %13 = load i32, ptr %12, align 4, !tbaa !8
  %14 = getelementptr inbounds nuw %class.vector.13, ptr %5, i32 0, i32 0
  %15 = load ptr, ptr %14, align 8, !tbaa !378
  %16 = getelementptr inbounds i32, ptr %15, i64 -2
  %17 = load i32, ptr %16, align 4, !tbaa !8
  %18 = icmp eq i32 %13, %17
  br i1 %18, label %19, label %20

19:                                               ; preds = %9, %2
  call void @_ZN6vectorIiLb1EjE13expand_vectorEv(ptr noundef nonnull align 8 dereferenceable(8) %5)
  br label %20

20:                                               ; preds = %19, %9
  %21 = getelementptr inbounds nuw %class.vector.13, ptr %5, i32 0, i32 0
  %22 = load ptr, ptr %21, align 8, !tbaa !378
  %23 = getelementptr inbounds nuw %class.vector.13, ptr %5, i32 0, i32 0
  %24 = load ptr, ptr %23, align 8, !tbaa !378
  %25 = getelementptr inbounds i32, ptr %24, i64 -1
  %26 = load i32, ptr %25, align 4, !tbaa !8
  %27 = zext i32 %26 to i64
  %28 = getelementptr inbounds nuw i32, ptr %22, i64 %27
  %29 = load ptr, ptr %4, align 8, !tbaa !327
  %30 = load i32, ptr %29, align 4, !tbaa !8
  store i32 %30, ptr %28, align 4, !tbaa !8
  %31 = getelementptr inbounds nuw %class.vector.13, ptr %5, i32 0, i32 0
  %32 = load ptr, ptr %31, align 8, !tbaa !378
  %33 = getelementptr inbounds i32, ptr %32, i64 -1
  %34 = load i32, ptr %33, align 4, !tbaa !8
  %35 = add i32 %34, 1
  store i32 %35, ptr %33, align 4, !tbaa !8
  ret ptr %5
}

; Function Attrs: mustprogress uwtable
define linkonce_odr hidden noundef ptr @_ZNK16indexed_uint_set3endEv(ptr noundef nonnull align 8 dereferenceable(24) %0) #6 comdat align 2 {
  %2 = alloca ptr, align 8
  store ptr %0, ptr %2, align 8, !tbaa !243
  %3 = load ptr, ptr %2, align 8
  %4 = getelementptr inbounds nuw %class.indexed_uint_set, ptr %3, i32 0, i32 1
  %5 = call noundef ptr @_ZNK6vectorIjLb0EjE5beginEv(ptr noundef nonnull align 8 dereferenceable(8) %4)
  %6 = getelementptr inbounds nuw %class.indexed_uint_set, ptr %3, i32 0, i32 0
  %7 = load i32, ptr %6, align 8, !tbaa !244
  %8 = zext i32 %7 to i64
  %9 = getelementptr inbounds nuw i32, ptr %5, i64 %8
  ret ptr %9
}

; Function Attrs: mustprogress uwtable
define linkonce_odr hidden noundef ptr @_ZNK16indexed_uint_set5beginEv(ptr noundef nonnull align 8 dereferenceable(24) %0) #6 comdat align 2 {
  %2 = alloca ptr, align 8
  store ptr %0, ptr %2, align 8, !tbaa !243
  %3 = load ptr, ptr %2, align 8
  %4 = getelementptr inbounds nuw %class.indexed_uint_set, ptr %3, i32 0, i32 1
  %5 = call noundef ptr @_ZNK6vectorIjLb0EjE5beginEv(ptr noundef nonnull align 8 dereferenceable(8) %4)
  ret ptr %5
}

; Function Attrs: mustprogress nounwind uwtable
define linkonce_odr hidden void @_ZN6vectorIiLb1EjEC2Ev(ptr noundef nonnull align 8 dereferenceable(8) %0) unnamed_addr #4 comdat align 2 {
  %2 = alloca ptr, align 8
  store ptr %0, ptr %2, align 8, !tbaa !376
  %3 = load ptr, ptr %2, align 8
  %4 = getelementptr inbounds nuw %class.vector.13, ptr %3, i32 0, i32 0
  store ptr null, ptr %4, align 8, !tbaa !378
  ret void
}

; Function Attrs: mustprogress uwtable
define hidden void @_ZN2lp10lar_solver21clean_popped_elementsEjR16indexed_uint_set(i32 noundef %0, ptr noundef nonnull align 8 dereferenceable(24) %1) #6 align 2 personality ptr @__gxx_personality_v0 {
  %3 = alloca i32, align 4
  %4 = alloca ptr, align 8
  %5 = alloca %class.vector.13, align 8
  %6 = alloca ptr, align 8
  %7 = alloca ptr, align 8
  %8 = alloca ptr, align 8
  %9 = alloca i32, align 4
  %10 = alloca ptr, align 8
  %11 = alloca i32, align 4
  %12 = alloca i32, align 4
  %13 = alloca ptr, align 8
  %14 = alloca ptr, align 8
  %15 = alloca ptr, align 8
  %16 = alloca i32, align 4
  store i32 %0, ptr %3, align 4, !tbaa !8
  store ptr %1, ptr %4, align 8, !tbaa !243
  call void @llvm.lifetime.start.p0(i64 8, ptr %5) #3
  call void @_ZN6vectorIiLb1EjEC2Ev(ptr noundef nonnull align 8 dereferenceable(8) %5) #3
  call void @llvm.lifetime.start.p0(i64 8, ptr %6) #3
  %17 = load ptr, ptr %4, align 8, !tbaa !243
  store ptr %17, ptr %6, align 8, !tbaa !243
  call void @llvm.lifetime.start.p0(i64 8, ptr %7) #3
  %18 = load ptr, ptr %6, align 8, !tbaa !243
  %19 = invoke noundef ptr @_ZNK16indexed_uint_set5beginEv(ptr noundef nonnull align 8 dereferenceable(24) %18)
          to label %20 unwind label %29

20:                                               ; preds = %2
  store ptr %19, ptr %7, align 8, !tbaa !327
  call void @llvm.lifetime.start.p0(i64 8, ptr %10) #3
  %21 = load ptr, ptr %6, align 8, !tbaa !243
  %22 = invoke noundef ptr @_ZNK16indexed_uint_set3endEv(ptr noundef nonnull align 8 dereferenceable(24) %21)
          to label %23 unwind label %33

23:                                               ; preds = %20
  store ptr %22, ptr %10, align 8, !tbaa !327
  br label %24

24:                                               ; preds = %52, %23
  %25 = load ptr, ptr %7, align 8, !tbaa !327
  %26 = load ptr, ptr %10, align 8, !tbaa !327
  %27 = icmp ne ptr %25, %26
  br i1 %27, label %37, label %28

28:                                               ; preds = %24
  call void @llvm.lifetime.end.p0(i64 8, ptr %10) #3
  call void @llvm.lifetime.end.p0(i64 8, ptr %7) #3
  call void @llvm.lifetime.end.p0(i64 8, ptr %6) #3
  br label %57

29:                                               ; preds = %2
  %30 = landingpad { ptr, i32 }
          cleanup
  %31 = extractvalue { ptr, i32 } %30, 0
  store ptr %31, ptr %8, align 8
  %32 = extractvalue { ptr, i32 } %30, 1
  store i32 %32, ptr %9, align 4
  br label %56

33:                                               ; preds = %20
  %34 = landingpad { ptr, i32 }
          cleanup
  %35 = extractvalue { ptr, i32 } %34, 0
  store ptr %35, ptr %8, align 8
  %36 = extractvalue { ptr, i32 } %34, 1
  store i32 %36, ptr %9, align 4
  br label %55

37:                                               ; preds = %24
  call void @llvm.lifetime.start.p0(i64 4, ptr %11) #3
  %38 = load ptr, ptr %7, align 8, !tbaa !327
  %39 = load i32, ptr %38, align 4, !tbaa !8
  store i32 %39, ptr %11, align 4, !tbaa !8
  %40 = load i32, ptr %11, align 4, !tbaa !8
  %41 = load i32, ptr %3, align 4, !tbaa !8
  %42 = icmp uge i32 %40, %41
  br i1 %42, label %43, label %51

43:                                               ; preds = %37
  call void @llvm.lifetime.start.p0(i64 4, ptr %12) #3
  %44 = load i32, ptr %11, align 4, !tbaa !8
  store i32 %44, ptr %12, align 4, !tbaa !8
  %45 = invoke noundef nonnull align 8 dereferenceable(8) ptr @_ZN6vectorIiLb1EjE9push_backEOi(ptr noundef nonnull align 8 dereferenceable(8) %5, ptr noundef nonnull align 4 dereferenceable(4) %12)
          to label %46 unwind label %47

46:                                               ; preds = %43
  call void @llvm.lifetime.end.p0(i64 4, ptr %12) #3
  br label %51

47:                                               ; preds = %43
  %48 = landingpad { ptr, i32 }
          cleanup
  %49 = extractvalue { ptr, i32 } %48, 0
  store ptr %49, ptr %8, align 8
  %50 = extractvalue { ptr, i32 } %48, 1
  store i32 %50, ptr %9, align 4
  call void @llvm.lifetime.end.p0(i64 4, ptr %12) #3
  call void @llvm.lifetime.end.p0(i64 4, ptr %11) #3
  br label %55

51:                                               ; preds = %46, %37
  call void @llvm.lifetime.end.p0(i64 4, ptr %11) #3
  br label %52

52:                                               ; preds = %51
  %53 = load ptr, ptr %7, align 8, !tbaa !327
  %54 = getelementptr inbounds nuw i32, ptr %53, i32 1
  store ptr %54, ptr %7, align 8, !tbaa !327
  br label %24

55:                                               ; preds = %47, %33
  call void @llvm.lifetime.end.p0(i64 8, ptr %10) #3
  br label %56

56:                                               ; preds = %55, %29
  call void @llvm.lifetime.end.p0(i64 8, ptr %7) #3
  call void @llvm.lifetime.end.p0(i64 8, ptr %6) #3
  br label %93

57:                                               ; preds = %28
  call void @llvm.lifetime.start.p0(i64 8, ptr %13) #3
  store ptr %5, ptr %13, align 8, !tbaa !376
  call void @llvm.lifetime.start.p0(i64 8, ptr %14) #3
  %58 = load ptr, ptr %13, align 8, !tbaa !376
  %59 = invoke noundef ptr @_ZN6vectorIiLb1EjE5beginEv(ptr noundef nonnull align 8 dereferenceable(8) %58)
          to label %60 unwind label %69

60:                                               ; preds = %57
  store ptr %59, ptr %14, align 8, !tbaa !327
  call void @llvm.lifetime.start.p0(i64 8, ptr %15) #3
  %61 = load ptr, ptr %13, align 8, !tbaa !376
  %62 = invoke noundef ptr @_ZN6vectorIiLb1EjE3endEv(ptr noundef nonnull align 8 dereferenceable(8) %61)
          to label %63 unwind label %73

63:                                               ; preds = %60
  store ptr %62, ptr %15, align 8, !tbaa !327
  br label %64

64:                                               ; preds = %83, %63
  %65 = load ptr, ptr %14, align 8, !tbaa !327
  %66 = load ptr, ptr %15, align 8, !tbaa !327
  %67 = icmp ne ptr %65, %66
  br i1 %67, label %77, label %68

68:                                               ; preds = %64
  call void @llvm.lifetime.end.p0(i64 8, ptr %15) #3
  call void @llvm.lifetime.end.p0(i64 8, ptr %14) #3
  call void @llvm.lifetime.end.p0(i64 8, ptr %13) #3
  br label %92

69:                                               ; preds = %57
  %70 = landingpad { ptr, i32 }
          cleanup
  %71 = extractvalue { ptr, i32 } %70, 0
  store ptr %71, ptr %8, align 8
  %72 = extractvalue { ptr, i32 } %70, 1
  store i32 %72, ptr %9, align 4
  br label %91

73:                                               ; preds = %60
  %74 = landingpad { ptr, i32 }
          cleanup
  %75 = extractvalue { ptr, i32 } %74, 0
  store ptr %75, ptr %8, align 8
  %76 = extractvalue { ptr, i32 } %74, 1
  store i32 %76, ptr %9, align 4
  br label %90

77:                                               ; preds = %64
  call void @llvm.lifetime.start.p0(i64 4, ptr %16) #3
  %78 = load ptr, ptr %14, align 8, !tbaa !327
  %79 = load i32, ptr %78, align 4, !tbaa !8
  store i32 %79, ptr %16, align 4, !tbaa !8
  %80 = load ptr, ptr %4, align 8, !tbaa !243
  %81 = load i32, ptr %16, align 4, !tbaa !8
  invoke void @_ZN16indexed_uint_set6removeEj(ptr noundef nonnull align 8 dereferenceable(24) %80, i32 noundef %81)
          to label %82 unwind label %86

82:                                               ; preds = %77
  call void @llvm.lifetime.end.p0(i64 4, ptr %16) #3
  br label %83

83:                                               ; preds = %82
  %84 = load ptr, ptr %14, align 8, !tbaa !327
  %85 = getelementptr inbounds nuw i32, ptr %84, i32 1
  store ptr %85, ptr %14, align 8, !tbaa !327
  br label %64

86:                                               ; preds = %77
  %87 = landingpad { ptr, i32 }
          cleanup
  %88 = extractvalue { ptr, i32 } %87, 0
  store ptr %88, ptr %8, align 8
  %89 = extractvalue { ptr, i32 } %87, 1
  store i32 %89, ptr %9, align 4
  call void @llvm.lifetime.end.p0(i64 4, ptr %16) #3
  br label %90

90:                                               ; preds = %86, %73
  call void @llvm.lifetime.end.p0(i64 8, ptr %15) #3
  br label %91

91:                                               ; preds = %90, %69
  call void @llvm.lifetime.end.p0(i64 8, ptr %14) #3
  call void @llvm.lifetime.end.p0(i64 8, ptr %13) #3
  br label %93

92:                                               ; preds = %68
  call void @_ZN6vectorIiLb1EjED2Ev(ptr noundef nonnull align 8 dereferenceable(8) %5) #3
  call void @llvm.lifetime.end.p0(i64 8, ptr %5) #3
  ret void

93:                                               ; preds = %91, %56
  call void @_ZN6vectorIiLb1EjED2Ev(ptr noundef nonnull align 8 dereferenceable(8) %5) #3
  call void @llvm.lifetime.end.p0(i64 8, ptr %5) #3
  br label %94

94:                                               ; preds = %93
  %95 = load ptr, ptr %8, align 8
  %96 = load i32, ptr %9, align 4
  %97 = insertvalue { ptr, i32 } poison, ptr %95, 0
  %98 = insertvalue { ptr, i32 } %97, i32 %96, 1
  resume { ptr, i32 } %98
}