; Function Attrs: mustprogress uwtable
define hidden void @_ZN2lp10lar_solver21clean_popped_elementsEjR16indexed_uint_set(i32 noundef %0, ptr noundef nonnull align 8 captures(none) dereferenceable(24) %1) local_unnamed_addr #5 align 2 personality ptr @__gxx_personality_v0 {
  %3 = alloca %class.vector.13, align 8
  call void @llvm.lifetime.start.p0(i64 8, ptr nonnull %3) #30
  store ptr null, ptr %3, align 8, !tbaa !400
  %4 = getelementptr inbounds nuw i8, ptr %1, i64 8
  %5 = load ptr, ptr %4, align 8, !tbaa !247
  %6 = load i32, ptr %1, align 8, !tbaa !225
  %7 = zext i32 %6 to i64
  %8 = getelementptr inbounds nuw i32, ptr %5, i64 %7
  %.not30 = icmp eq i32 %6, 0
  br i1 %.not30, label %_ZN6vectorIiLb1EjED2Ev.exit, label %.lr.ph

._crit_edge:                                      ; preds = %37
  %9 = icmp eq ptr %38, null
  br i1 %9, label %_ZN6vectorIiLb1EjED2Ev.exit, label %_ZN6vectorIiLb1EjE3endEv.exit

_ZN6vectorIiLb1EjE3endEv.exit:                    ; preds = %._crit_edge
  %10 = getelementptr inbounds i8, ptr %38, i64 -4
  %11 = load i32, ptr %10, align 4, !tbaa !261
  %12 = zext i32 %11 to i64
  %13 = getelementptr inbounds nuw i32, ptr %38, i64 %12
  %.not2532 = icmp eq i32 %11, 0
  br i1 %.not2532, label %._crit_edge35.thread39, label %.lr.ph34

.lr.ph34:                                         ; preds = %_ZN6vectorIiLb1EjE3endEv.exit
  %14 = load ptr, ptr %4, align 8, !tbaa !247
  %15 = getelementptr inbounds nuw i8, ptr %1, i64 16
  %16 = load ptr, ptr %15, align 8
  br label %44

.lr.ph:                                           ; preds = %2, %37
  %17 = phi ptr [ %38, %37 ], [ null, %2 ]
  %.031 = phi ptr [ %39, %37 ], [ %5, %2 ]
  %18 = load i32, ptr %.031, align 4, !tbaa !261
  %.not26 = icmp ult i32 %18, %0
  br i1 %.not26, label %37, label %19

19:                                               ; preds = %.lr.ph
  %20 = icmp eq ptr %17, null
  br i1 %20, label %27, label %21

21:                                               ; preds = %19
  %22 = getelementptr inbounds i8, ptr %17, i64 -4
  %23 = load i32, ptr %22, align 4, !tbaa !261
  %24 = getelementptr inbounds i8, ptr %17, i64 -8
  %25 = load i32, ptr %24, align 4, !tbaa !261
  %26 = icmp eq i32 %23, %25
  br i1 %26, label %27, label %28

27:                                               ; preds = %21, %19
  invoke void @_ZN6vectorIiLb1EjE13expand_vectorEv(ptr noundef nonnull align 8 dereferenceable(8) %3)
          to label %.noexc unwind label %35

.noexc:                                           ; preds = %27
  %.pre.i = load ptr, ptr %3, align 8, !tbaa !400
  %.phi.trans.insert.i = getelementptr inbounds i8, ptr %.pre.i, i64 -4
  %.pre2.i = load i32, ptr %.phi.trans.insert.i, align 4, !tbaa !261
  br label %28

28:                                               ; preds = %.noexc, %21
  %29 = phi ptr [ %.pre.i, %.noexc ], [ %17, %21 ]
  %30 = phi i32 [ %.pre2.i, %.noexc ], [ %23, %21 ]
  %31 = getelementptr inbounds i8, ptr %29, i64 -4
  %32 = zext i32 %30 to i64
  %33 = getelementptr inbounds nuw i32, ptr %29, i64 %32
  store i32 %18, ptr %33, align 4, !tbaa !261
  %34 = add i32 %30, 1
  store i32 %34, ptr %31, align 4, !tbaa !261
  br label %37

35:                                               ; preds = %27
  %36 = landingpad { ptr, i32 }
          cleanup
  call void @_ZN6vectorIiLb1EjED2Ev(ptr noundef nonnull align 8 dereferenceable(8) %3) #30
  call void @llvm.lifetime.end.p0(i64 8, ptr nonnull %3) #30
  resume { ptr, i32 } %36

37:                                               ; preds = %28, %.lr.ph
  %38 = phi ptr [ %29, %28 ], [ %17, %.lr.ph ]
  %39 = getelementptr inbounds nuw i8, ptr %.031, i64 4
  %.not = icmp eq ptr %39, %8
  br i1 %.not, label %._crit_edge, label %.lr.ph

._crit_edge35.thread39:                           ; preds = %_ZN16indexed_uint_set6removeEj.exit, %_ZN6vectorIiLb1EjE3endEv.exit
  %40 = getelementptr inbounds i8, ptr %38, i64 -8
  invoke void @_ZN6memory10deallocateEPv(ptr noundef nonnull %40)
          to label %_ZN6vectorIiLb1EjED2Ev.exit unwind label %41

41:                                               ; preds = %._crit_edge35.thread39
  %42 = landingpad { ptr, i32 }
          catch ptr null
  %43 = extractvalue { ptr, i32 } %42, 0
  call void @__clang_call_terminate(ptr %43) #31
  unreachable

_ZN6vectorIiLb1EjED2Ev.exit:                      ; preds = %._crit_edge, %2, %._crit_edge35.thread39
  call void @llvm.lifetime.end.p0(i64 8, ptr nonnull %3) #30
  ret void

44:                                               ; preds = %.lr.ph34, %_ZN16indexed_uint_set6removeEj.exit
  %.02033 = phi ptr [ %38, %.lr.ph34 ], [ %62, %_ZN16indexed_uint_set6removeEj.exit ]
  %45 = load i32, ptr %.02033, align 4, !tbaa !261
  %46 = load i32, ptr %1, align 8, !tbaa !225
  %47 = add i32 %46, -1
  store i32 %47, ptr %1, align 8, !tbaa !225
  %48 = zext i32 %47 to i64
  %49 = getelementptr inbounds nuw i32, ptr %14, i64 %48
  %50 = load i32, ptr %49, align 4, !tbaa !261
  %.not.i = icmp eq i32 %45, %50
  br i1 %.not.i, label %_ZN16indexed_uint_set6removeEj.exit, label %51

51:                                               ; preds = %44
  %52 = zext i32 %45 to i64
  %53 = getelementptr inbounds nuw i32, ptr %16, i64 %52
  %54 = load i32, ptr %53, align 4, !tbaa !261
  %55 = zext i32 %50 to i64
  %56 = getelementptr inbounds nuw i32, ptr %16, i64 %55
  store i32 %54, ptr %56, align 4, !tbaa !261
  %57 = zext i32 %54 to i64
  %58 = getelementptr inbounds nuw i32, ptr %14, i64 %57
  store i32 %50, ptr %58, align 4, !tbaa !261
  %59 = load i32, ptr %1, align 8, !tbaa !225
  store i32 %59, ptr %53, align 4, !tbaa !261
  %60 = zext i32 %59 to i64
  %61 = getelementptr inbounds nuw i32, ptr %14, i64 %60
  store i32 %45, ptr %61, align 4, !tbaa !261
  br label %_ZN16indexed_uint_set6removeEj.exit

_ZN16indexed_uint_set6removeEj.exit:              ; preds = %51, %44
  %62 = getelementptr inbounds nuw i8, ptr %.02033, i64 4
  %.not25 = icmp eq ptr %62, %13
  br i1 %.not25, label %._crit_edge35.thread39, label %44
}